target datalayout = "e-m:e-p270:32:32-p271:32:32-p272:64:64-i64:64-i128:128-f80:128-n8:16:32:64-S128"
target triple = "x86_64-pc-linux-gnu"

%"class.std::__cxx11::basic_string" = type { %"struct.std::__cxx11::basic_string<char>::_Alloc_hider", i64, %union.anon }
%"struct.std::__cxx11::basic_string<char>::_Alloc_hider" = type { ptr }
%union.anon = type { i64, [8 x i8] }
%"class.open3d::visualization::glsl::ShaderWrapper" = type { ptr, i32, i32, i32, i32, i32, i32, i8, i8, %"class.std::__cxx11::basic_string" }
%"class.open3d::visualization::glsl::NormalShader" = type <{ %"class.open3d::visualization::glsl::ShaderWrapper", i32, i32, i32, i32, i32, i32, i32, [4 x i8] }>

@__glewDeleteBuffers = external global ptr, align 8

; Function Attrs: mustprogress ssp uwtable
define hidden void @_ZN6open3d13visualization4glsl12NormalShader14UnbindGeometryEv(ptr noundef nonnull align 8 dereferenceable(100) %0) unnamed_addr #1 align 2 {
  %2 = alloca ptr, align 8
  store ptr %0, ptr %2, align 8, !tbaa !4
  %3 = load ptr, ptr %2, align 8
  %4 = getelementptr inbounds nuw %"class.open3d::visualization::glsl::ShaderWrapper", ptr %3, i32 0, i32 8
  %5 = load i8, ptr %4, align 1, !tbaa !34, !range !37, !noundef !38
  %6 = trunc i8 %5 to i1
  br i1 %6, label %7, label %13

7:                                                ; preds = %1
  %8 = load ptr, ptr @__glewDeleteBuffers, align 8, !tbaa !9
  %9 = getelementptr inbounds nuw %"class.open3d::visualization::glsl::NormalShader", ptr %3, i32 0, i32 2
  call void %8(i32 noundef 1, ptr noundef %9)
  %10 = load ptr, ptr @__glewDeleteBuffers, align 8, !tbaa !9
  %11 = getelementptr inbounds nuw %"class.open3d::visualization::glsl::NormalShader", ptr %3, i32 0, i32 4
  call void %10(i32 noundef 1, ptr noundef %11)
  %12 = getelementptr inbounds nuw %"class.open3d::visualization::glsl::ShaderWrapper", ptr %3, i32 0, i32 8
  store i8 0, ptr %12, align 1, !tbaa !34
  br label %13

13:                                               ; preds = %7, %1
  ret void
}

; Function Attrs: mustprogress ssp uwtable
define hidden void @_ZN6open3d13visualization4glsl12NormalShader7ReleaseEv(ptr noundef nonnull align 8 dereferenceable(100) %0) unnamed_addr #1 align 2 {
  %2 = alloca ptr, align 8
  store ptr %0, ptr %2, align 8, !tbaa !4
  %3 = load ptr, ptr %2, align 8
  call void @_ZN6open3d13visualization4glsl12NormalShader14UnbindGeometryEv(ptr noundef nonnull align 8 dereferenceable(100) %3)
  call void @_ZN6open3d13visualization4glsl13ShaderWrapper14ReleaseProgramEv(ptr noundef nonnull align 8 dereferenceable(72) %3)
  ret void
}